target datalayout = "e-m:e-p270:32:32-p271:32:32-p272:64:64-i64:64-i128:128-f80:128-n8:16:32:64-S128"
target triple = "x86_64-unknown-linux-gnu"

%"class.icu_75::UnhandledEngine" = type { %"class.icu_75::LanguageBreakEngine", ptr }
%"class.icu_75::LanguageBreakEngine" = type { %"class.icu_75::UObject" }
%"class.icu_75::UObject" = type { ptr }

; Function Attrs: mustprogress uwtable
define void @_ZN6icu_7515UnhandledEngine15handleCharacterEi(ptr noundef nonnull align 8 dereferenceable(16) %this, i32 noundef %c) unnamed_addr #1 align 2 personality ptr @__gxx_personality_v0 {
entry:
  %this.addr = alloca ptr, align 8
  %c.addr = alloca i32, align 4
  %saved-rvalue = alloca ptr, align 8
  %cleanup.cond = alloca i1, align 1
  %exn.slot = alloca ptr, align 8
  %ehselector.slot = alloca i32, align 4
  %status = alloca i32, align 4
  %script = alloca i32, align 4
  store ptr %this, ptr %this.addr, align 8
  store i32 %c, ptr %c.addr, align 4
  %this1 = load ptr, ptr %this.addr, align 8
  %fHandled = getelementptr inbounds %"class.icu_75::UnhandledEngine", ptr %this1, i32 0, i32 1
  %0 = load ptr, ptr %fHandled, align 8
  %cmp = icmp eq ptr %0, null
  br i1 %cmp, label %if.then, label %if.end6

if.then:                                          ; preds = %entry
  %call = call noundef ptr @_ZN6icu_757UMemorynwEm(i64 noundef 200) #8
  %new.isnull = icmp eq ptr %call, null
  store i1 false, ptr %cleanup.cond, align 1
  br i1 %new.isnull, label %new.cont, label %new.notnull

new.notnull:                                      ; preds = %if.then
  store ptr %call, ptr %saved-rvalue, align 8
  store i1 true, ptr %cleanup.cond, align 1
  invoke void @_ZN6icu_7510UnicodeSetC1Ev(ptr noundef nonnull align 8 dereferenceable(200) %call)
          to label %invoke.cont unwind label %lpad

invoke.cont:                                      ; preds = %new.notnull
  br label %new.cont

new.cont:                                         ; preds = %invoke.cont, %if.then
  %1 = phi ptr [ %call, %invoke.cont ], [ null, %if.then ]
  %fHandled2 = getelementptr inbounds %"class.icu_75::UnhandledEngine", ptr %this1, i32 0, i32 1
  store ptr %1, ptr %fHandled2, align 8
  %fHandled3 = getelementptr inbounds %"class.icu_75::UnhandledEngine", ptr %this1, i32 0, i32 1
  %2 = load ptr, ptr %fHandled3, align 8
  %cmp4 = icmp eq ptr %2, null
  br i1 %cmp4, label %if.then5, label %if.end

if.then5:                                         ; preds = %new.cont
  br label %if.end13

lpad:                                             ; preds = %new.notnull
  %3 = landingpad { ptr, i32 }
          cleanup
  %4 = extractvalue { ptr, i32 } %3, 0
  store ptr %4, ptr %exn.slot, align 8
  %5 = extractvalue { ptr, i32 } %3, 1
  store i32 %5, ptr %ehselector.slot, align 4
  %cleanup.is_active = load i1, ptr %cleanup.cond, align 1
  br i1 %cleanup.is_active, label %cleanup.action, label %cleanup.done

cleanup.action:                                   ; preds = %lpad
  %6 = load ptr, ptr %saved-rvalue, align 8
  call void @_ZN6icu_757UMemorydlEPv(ptr noundef %6) #8
  br label %cleanup.done

cleanup.done:                                     ; preds = %cleanup.action, %lpad
  br label %eh.resume

if.end:                                           ; preds = %new.cont
  br label %if.end6

if.end6:                                          ; preds = %if.end, %entry
  %fHandled7 = getelementptr inbounds %"class.icu_75::UnhandledEngine", ptr %this1, i32 0, i32 1
  %7 = load ptr, ptr %fHandled7, align 8
  %8 = load i32, ptr %c.addr, align 4
  %call8 = call noundef signext i8 @_ZNK6icu_7510UnicodeSet8containsEi(ptr noundef nonnull align 8 dereferenceable(200) %7, i32 noundef %8)
  %tobool = icmp ne i8 %call8, 0
  br i1 %tobool, label %if.end13, label %if.then9

if.then9:                                         ; preds = %if.end6
  store i32 0, ptr %status, align 4
  %9 = load i32, ptr %c.addr, align 4
  %call10 = call i32 @u_getIntPropertyValue_75(i32 noundef %9, i32 noundef 4106)
  store i32 %call10, ptr %script, align 4
  %fHandled11 = getelementptr inbounds %"class.icu_75::UnhandledEngine", ptr %this1, i32 0, i32 1
  %10 = load ptr, ptr %fHandled11, align 8
  %11 = load i32, ptr %script, align 4
  %call12 = call noundef nonnull align 8 dereferenceable(200) ptr @_ZN6icu_7510UnicodeSet21applyIntPropertyValueE9UPropertyiR10UErrorCode(ptr noundef nonnull align 8 dereferenceable(200) %10, i32 noundef 4106, i32 noundef %11, ptr noundef nonnull align 4 dereferenceable(4) %status)
  br label %if.end13

if.end13:                                         ; preds = %if.then9, %if.end6, %if.then5
  ret void

eh.resume:                                        ; preds = %cleanup.done
  %exn = load ptr, ptr %exn.slot, align 8
  %sel = load i32, ptr %ehselector.slot, align 4
  %lpad.val = insertvalue { ptr, i32 } poison, ptr %exn, 0
  %lpad.val14 = insertvalue { ptr, i32 } %lpad.val, i32 %sel, 1
  resume { ptr, i32 } %lpad.val14
}