; Function Attrs: mustprogress uwtable
define void @_ZN6icu_7515UnhandledEngine15handleCharacterEi(ptr nocapture noundef nonnull align 8 dereferenceable(16) %this, i32 noundef %c) unnamed_addr #1 align 2 personality ptr @__gxx_personality_v0 {
entry:
  %status = alloca i32, align 4
  %fHandled = getelementptr inbounds i8, ptr %this, i64 8
  %0 = load ptr, ptr %fHandled, align 8
  %cmp = icmp eq ptr %0, null
  br i1 %cmp, label %if.then, label %if.end6

if.then:                                          ; preds = %entry
  %call = tail call noundef ptr @_ZN6icu_757UMemorynwEm(i64 noundef 200) #13
  %new.isnull = icmp eq ptr %call, null
  br i1 %new.isnull, label %new.cont.thread, label %new.notnull

new.cont.thread:                                  ; preds = %if.then
  store ptr null, ptr %fHandled, align 8
  br label %if.end13

new.notnull:                                      ; preds = %if.then
  invoke void @_ZN6icu_7510UnicodeSetC1Ev(ptr noundef nonnull align 8 dereferenceable(200) %call)
          to label %new.cont unwind label %lpad

new.cont:                                         ; preds = %new.notnull
  store ptr %call, ptr %fHandled, align 8
  br label %if.end6

lpad:                                             ; preds = %new.notnull
  %1 = landingpad { ptr, i32 }
          cleanup
  tail call void @_ZN6icu_757UMemorydlEPv(ptr noundef nonnull %call) #13
  resume { ptr, i32 } %1

if.end6:                                          ; preds = %new.cont, %entry
  %2 = phi ptr [ %call, %new.cont ], [ %0, %entry ]
  %call8 = tail call noundef signext i8 @_ZNK6icu_7510UnicodeSet8containsEi(ptr noundef nonnull align 8 dereferenceable(200) %2, i32 noundef %c)
  %tobool.not = icmp eq i8 %call8, 0
  br i1 %tobool.not, label %if.then9, label %if.end13

if.then9:                                         ; preds = %if.end6
  store i32 0, ptr %status, align 4
  %call10 = tail call i32 @u_getIntPropertyValue_75(i32 noundef %c, i32 noundef 4106)
  %3 = load ptr, ptr %fHandled, align 8
  %call12 = call noundef nonnull align 8 dereferenceable(200) ptr @_ZN6icu_7510UnicodeSet21applyIntPropertyValueE9UPropertyiR10UErrorCode(ptr noundef nonnull align 8 dereferenceable(200) %3, i32 noundef 4106, i32 noundef %call10, ptr noundef nonnull align 4 dereferenceable(4) %status)
  br label %if.end13

if.end13:                                         ; preds = %new.cont.thread, %if.then9, %if.end6
  ret void
}